target datalayout = "e-m:e-p270:32:32-p271:32:32-p272:64:64-i64:64-i128:128-f80:128-n8:16:32:64-S128"
target triple = "x86_64-unknown-linux-gnu"

%"class.std::__cxx11::list" = type { %"class.std::__cxx11::_List_base" }
%"class.std::__cxx11::_List_base" = type { %"struct.std::__cxx11::_List_base<net::ReliableQuicStream::PendingData, std::allocator<net::ReliableQuicStream::PendingData>>::_List_impl" }
%"struct.std::__cxx11::_List_base<net::ReliableQuicStream::PendingData, std::allocator<net::ReliableQuicStream::PendingData>>::_List_impl" = type { %"struct.std::__detail::_List_node_header" }
%"struct.std::__detail::_List_node_header" = type { %"struct.std::__detail::_List_node_base", i64 }
%"struct.std::__detail::_List_node_base" = type { ptr, ptr }
%"class.net::QuicStreamSequencer" = type <{ ptr, ptr, %"class.net::QuicStreamSequencerBuffer", i64, i8, [3 x i8], i32, i32, [4 x i8], ptr, i8, [7 x i8] }>
%"class.net::QuicStreamSequencerBuffer" = type { i64, i64, i64, %"class.std::__cxx11::list.0", i8, %"class.std::unique_ptr", i64, %"class.std::map" }
%"class.std::__cxx11::list.0" = type { %"class.std::__cxx11::_List_base.1" }
%"class.std::__cxx11::_List_base.1" = type { %"struct.std::__cxx11::_List_base<net::QuicStreamSequencerBuffer::Gap, std::allocator<net::QuicStreamSequencerBuffer::Gap>>::_List_impl" }
%"struct.std::__cxx11::_List_base<net::QuicStreamSequencerBuffer::Gap, std::allocator<net::QuicStreamSequencerBuffer::Gap>>::_List_impl" = type { %"struct.std::__detail::_List_node_header" }
%"class.std::unique_ptr" = type { %"struct.std::__uniq_ptr_data" }
%"struct.std::__uniq_ptr_data" = type { %"class.std::__uniq_ptr_impl" }
%"class.std::__uniq_ptr_impl" = type { %"class.std::tuple" }
%"class.std::tuple" = type { %"struct.std::_Tuple_impl" }
%"struct.std::_Tuple_impl" = type { %"struct.std::_Head_base.6" }
%"struct.std::_Head_base.6" = type { ptr }
%"class.std::map" = type { %"class.std::_Rb_tree" }
%"class.std::_Rb_tree" = type { %"struct.std::_Rb_tree<unsigned long, std::pair<const unsigned long, net::QuicStreamSequencerBuffer::FrameInfo>, std::_Select1st<std::pair<const unsigned long, net::QuicStreamSequencerBuffer::FrameInfo>>, std::less<unsigned long>>::_Rb_tree_impl" }
%"struct.std::_Rb_tree<unsigned long, std::pair<const unsigned long, net::QuicStreamSequencerBuffer::FrameInfo>, std::_Select1st<std::pair<const unsigned long, net::QuicStreamSequencerBuffer::FrameInfo>>, std::less<unsigned long>>::_Rb_tree_impl" = type { %"struct.std::_Rb_tree_key_compare", %"struct.std::_Rb_tree_header" }
%"struct.std::_Rb_tree_key_compare" = type { %"struct.std::less" }
%"struct.std::less" = type { i8 }
%"struct.std::_Rb_tree_header" = type { %"struct.std::_Rb_tree_node_base", i64 }
%"struct.std::_Rb_tree_node_base" = type { i32, ptr, ptr, ptr }
%"class.net::QuicFlowController" = type { ptr, i32, i32, i64, i64, i64, i64, i64, i64, i64, i8, i64, %"class.net::QuicTime" }
%"class.net::QuicTime" = type { i64 }
%"class.net::ReliableQuicStream" = type <{ ptr, %"class.std::__cxx11::list", i64, %"class.net::QuicStreamSequencer", i32, [4 x i8], ptr, i64, i64, i32, i32, i8, i8, i8, i8, i8, i8, i8, i8, i32, [4 x i8], %"class.net::QuicFlowController", ptr, i8, [7 x i8] }>
%"struct.net::QuicRstStreamFrame" = type { i32, i32, i64 }

; Function Attrs: mustprogress nounwind uwtable
define linkonce_odr dso_local void @_ZN3net18ReliableQuicStream16set_stream_errorENS_22QuicRstStreamErrorCodeE(ptr noundef nonnull align 8 dereferenceable(377) %this, i32 noundef %error) #3 comdat align 2 {
entry:
  %this.addr = alloca ptr, align 8
  %error.addr = alloca i32, align 4
  store ptr %this, ptr %this.addr, align 8
  store i32 %error, ptr %error.addr, align 4
  %this1 = load ptr, ptr %this.addr, align 8
  %0 = load i32, ptr %error.addr, align 4
  %stream_error_ = getelementptr inbounds %"class.net::ReliableQuicStream", ptr %this1, i32 0, i32 9
  store i32 %0, ptr %stream_error_, align 8
  ret void
}

; Function Attrs: mustprogress nounwind uwtable
define linkonce_odr dso_local void @_ZN3net18ReliableQuicStream16set_rst_receivedEb(ptr noundef nonnull align 8 dereferenceable(377) %this, i1 noundef zeroext %rst_received) #3 comdat align 2 {
entry:
  %this.addr = alloca ptr, align 8
  %rst_received.addr = alloca i8, align 1
  store ptr %this, ptr %this.addr, align 8
  %frombool = zext i1 %rst_received to i8
  store i8 %frombool, ptr %rst_received.addr, align 1
  %this1 = load ptr, ptr %this.addr, align 8
  %0 = load i8, ptr %rst_received.addr, align 1
  %tobool = trunc i8 %0 to i1
  %rst_received_ = getelementptr inbounds %"class.net::ReliableQuicStream", ptr %this1, i32 0, i32 17
  %frombool2 = zext i1 %tobool to i8
  store i8 %frombool2, ptr %rst_received_, align 2
  ret void
}

; Function Attrs: mustprogress uwtable
define dso_local void @_ZN3net14QuicSpdyStream13OnStreamResetERKNS_18QuicRstStreamFrameE(ptr noundef nonnull align 8 dereferenceable(664) %this, ptr noundef nonnull align 8 dereferenceable(16) %frame) unnamed_addr #0 align 2 {
entry:
  %this.addr = alloca ptr, align 8
  %frame.addr = alloca ptr, align 8
  store ptr %this, ptr %this.addr, align 8
  store ptr %frame, ptr %frame.addr, align 8
  %this1 = load ptr, ptr %this.addr, align 8
  %0 = load ptr, ptr %frame.addr, align 8
  %error_code = getelementptr inbounds %"struct.net::QuicRstStreamFrame", ptr %0, i32 0, i32 1
  %1 = load i32, ptr %error_code, align 4
  %cmp = icmp ne i32 %1, 0
  br i1 %cmp, label %if.then, label %if.end

if.then:                                          ; preds = %entry
  %2 = load ptr, ptr %frame.addr, align 8
  call void @_ZN3net18ReliableQuicStream13OnStreamResetERKNS_18QuicRstStreamFrameE(ptr noundef nonnull align 8 dereferenceable(377) %this1, ptr noundef nonnull align 8 dereferenceable(16) %2)
  br label %return

if.end:                                           ; preds = %entry
  call void @_ZN3net18ReliableQuicStream16set_rst_receivedEb(ptr noundef nonnull align 8 dereferenceable(377) %this1, i1 noundef zeroext true)
  %3 = load ptr, ptr %frame.addr, align 8
  %byte_offset = getelementptr inbounds %"struct.net::QuicRstStreamFrame", ptr %3, i32 0, i32 2
  %4 = load i64, ptr %byte_offset, align 8
  %call = call noundef zeroext i1 @_ZN3net18ReliableQuicStream34MaybeIncreaseHighestReceivedOffsetEm(ptr noundef nonnull align 8 dereferenceable(377) %this1, i64 noundef %4)
  %5 = load ptr, ptr %frame.addr, align 8
  %error_code2 = getelementptr inbounds %"struct.net::QuicRstStreamFrame", ptr %5, i32 0, i32 1
  %6 = load i32, ptr %error_code2, align 4
  call void @_ZN3net18ReliableQuicStream16set_stream_errorENS_22QuicRstStreamErrorCodeE(ptr noundef nonnull align 8 dereferenceable(377) %this1, i32 noundef %6)
  %vtable = load ptr, ptr %this1, align 8
  %vfn = getelementptr inbounds ptr, ptr %vtable, i64 14
  %7 = load ptr, ptr %vfn, align 8
  call void %7(ptr noundef nonnull align 8 dereferenceable(664) %this1)
  br label %return

return:                                           ; preds = %if.end, %if.then
  ret void
}