; Function Attrs: mustprogress uwtable
define dso_local void @_ZN3net14QuicSpdyStream13OnStreamResetERKNS_18QuicRstStreamFrameE(ptr noundef nonnull align 8 dereferenceable(664) %this, ptr noundef nonnull align 8 dereferenceable(16) %frame) unnamed_addr #0 align 2 {
entry:
  %error_code = getelementptr inbounds i8, ptr %frame, i64 4
  %0 = load i32, ptr %error_code, align 4
  %cmp.not = icmp eq i32 %0, 0
  br i1 %cmp.not, label %if.end, label %if.then

if.then:                                          ; preds = %entry
  tail call void @_ZN3net18ReliableQuicStream13OnStreamResetERKNS_18QuicRstStreamFrameE(ptr noundef nonnull align 8 dereferenceable(377) %this, ptr noundef nonnull align 8 dereferenceable(16) %frame)
  br label %return

if.end:                                           ; preds = %entry
  %rst_received_.i = getelementptr inbounds i8, ptr %this, i64 262
  store i8 1, ptr %rst_received_.i, align 2
  %byte_offset = getelementptr inbounds i8, ptr %frame, i64 8
  %1 = load i64, ptr %byte_offset, align 8
  %call = tail call noundef zeroext i1 @_ZN3net18ReliableQuicStream34MaybeIncreaseHighestReceivedOffsetEm(ptr noundef nonnull align 8 dereferenceable(377) %this, i64 noundef %1)
  %2 = load i32, ptr %error_code, align 4
  %stream_error_.i = getelementptr inbounds i8, ptr %this, i64 248
  store i32 %2, ptr %stream_error_.i, align 8
  %vtable = load ptr, ptr %this, align 8
  %vfn = getelementptr inbounds i8, ptr %vtable, i64 112
  %3 = load ptr, ptr %vfn, align 8
  tail call void %3(ptr noundef nonnull align 8 dereferenceable(664) %this)
  br label %return

return:                                           ; preds = %if.end, %if.then
  ret void
}